target datalayout = "e-m:e-p270:32:32-p271:32:32-p272:64:64-i64:64-i128:128-f80:128-n8:16:32:64-S128"
target triple = "x86_64-pc-linux-gnu"

%struct.jpeg_compress_struct = type { ptr, ptr, ptr, ptr, i32, i32, ptr, i32, i32, i32, i32, double, i32, i32, i32, ptr, [4 x ptr], [4 x ptr], [4 x ptr], [16 x i8], [16 x i8], [16 x i8], i32, ptr, i32, i32, i32, i32, i32, i32, i32, i32, i32, i8, i8, i8, i16, i16, i32, i32, i32, i32, i32, i32, i32, [4 x ptr], i32, i32, i32, [10 x i32], i32, i32, i32, i32, ptr, ptr, ptr, ptr, ptr, ptr, ptr, ptr, ptr, ptr, i32 }
%struct.jpeg_error_mgr = type { ptr, ptr, ptr, ptr, ptr, i32, %union.anon, i32, i64, ptr, i32, ptr, i32, i32 }
%union.anon = type { [8 x i32], [48 x i8] }
%struct.gif_source_struct = type { %struct.cjpeg_source_struct, ptr, ptr, [260 x i8], i32, i32, i32, i32, i32, i32, i32, i32, i32, i32, i32, i32, i32, ptr, ptr, ptr, ptr, i32, ptr, i32, i32, i32, i32 }
%struct.cjpeg_source_struct = type { ptr, ptr, ptr, ptr, ptr, ptr, ptr, i32, i32 }

; Function Attrs: nounwind uwtable
define internal i32 @ReadByte(ptr noundef %0) #0 {
  %2 = alloca ptr, align 8
  %3 = alloca ptr, align 8
  %4 = alloca i32, align 4
  store ptr %0, ptr %2, align 8, !tbaa !37
  call void @llvm.lifetime.start.p0(i64 8, ptr %3) #3
  %5 = load ptr, ptr %2, align 8, !tbaa !37
  %6 = getelementptr inbounds nuw %struct.gif_source_struct, ptr %5, i32 0, i32 0
  %7 = getelementptr inbounds nuw %struct.cjpeg_source_struct, ptr %6, i32 0, i32 3
  %8 = load ptr, ptr %7, align 8, !tbaa !51
  store ptr %8, ptr %3, align 8, !tbaa !86
  call void @llvm.lifetime.start.p0(i64 4, ptr %4) #3
  %9 = load ptr, ptr %3, align 8, !tbaa !86
  %10 = call i32 @getc(ptr noundef %9)
  store i32 %10, ptr %4, align 4, !tbaa !54
  %11 = icmp eq i32 %10, -1
  br i1 %11, label %12, label %29

12:                                               ; preds = %1
  %13 = load ptr, ptr %2, align 8, !tbaa !37
  %14 = getelementptr inbounds nuw %struct.gif_source_struct, ptr %13, i32 0, i32 1
  %15 = load ptr, ptr %14, align 8, !tbaa !38
  %16 = getelementptr inbounds nuw %struct.jpeg_compress_struct, ptr %15, i32 0, i32 0
  %17 = load ptr, ptr %16, align 8, !tbaa !27
  %18 = getelementptr inbounds nuw %struct.jpeg_error_mgr, ptr %17, i32 0, i32 5
  store i32 43, ptr %18, align 8, !tbaa !28
  %19 = load ptr, ptr %2, align 8, !tbaa !37
  %20 = getelementptr inbounds nuw %struct.gif_source_struct, ptr %19, i32 0, i32 1
  %21 = load ptr, ptr %20, align 8, !tbaa !38
  %22 = getelementptr inbounds nuw %struct.jpeg_compress_struct, ptr %21, i32 0, i32 0
  %23 = load ptr, ptr %22, align 8, !tbaa !27
  %24 = getelementptr inbounds nuw %struct.jpeg_error_mgr, ptr %23, i32 0, i32 0
  %25 = load ptr, ptr %24, align 8, !tbaa !33
  %26 = load ptr, ptr %2, align 8, !tbaa !37
  %27 = getelementptr inbounds nuw %struct.gif_source_struct, ptr %26, i32 0, i32 1
  %28 = load ptr, ptr %27, align 8, !tbaa !38
  call void %25(ptr noundef %28)
  br label %29

29:                                               ; preds = %12, %1
  %30 = load i32, ptr %4, align 4, !tbaa !54
  call void @llvm.lifetime.end.p0(i64 4, ptr %4) #3
  call void @llvm.lifetime.end.p0(i64 8, ptr %3) #3
  ret i32 %30
}

; Function Attrs: nounwind uwtable
define internal void @ReadColorMap(ptr noundef %0, i32 noundef %1, ptr noundef %2) #0 {
  %4 = alloca ptr, align 8
  %5 = alloca i32, align 4
  %6 = alloca ptr, align 8
  %7 = alloca i32, align 4
  %8 = alloca i32, align 4
  store ptr %0, ptr %4, align 8, !tbaa !37
  store i32 %1, ptr %5, align 4, !tbaa !54
  store ptr %2, ptr %6, align 8, !tbaa !84
  call void @llvm.lifetime.start.p0(i64 4, ptr %7) #3
  call void @llvm.lifetime.start.p0(i64 4, ptr %8) #3
  store i32 1, ptr %8, align 4, !tbaa !54
  store i32 0, ptr %7, align 4, !tbaa !54
  br label %9

9:                                                ; preds = %78, %3
  %10 = load i32, ptr %7, align 4, !tbaa !54
  %11 = load i32, ptr %5, align 4, !tbaa !54
  %12 = icmp slt i32 %10, %11
  br i1 %12, label %13, label %81

13:                                               ; preds = %9
  %14 = load ptr, ptr %4, align 8, !tbaa !37
  %15 = call i32 @ReadByte(ptr noundef %14)
  %16 = trunc i32 %15 to i8
  %17 = load ptr, ptr %6, align 8, !tbaa !84
  %18 = getelementptr inbounds ptr, ptr %17, i64 0
  %19 = load ptr, ptr %18, align 8, !tbaa !79
  %20 = load i32, ptr %7, align 4, !tbaa !54
  %21 = sext i32 %20 to i64
  %22 = getelementptr inbounds i8, ptr %19, i64 %21
  store i8 %16, ptr %22, align 1, !tbaa !32
  %23 = load ptr, ptr %4, align 8, !tbaa !37
  %24 = call i32 @ReadByte(ptr noundef %23)
  %25 = trunc i32 %24 to i8
  %26 = load ptr, ptr %6, align 8, !tbaa !84
  %27 = getelementptr inbounds ptr, ptr %26, i64 1
  %28 = load ptr, ptr %27, align 8, !tbaa !79
  %29 = load i32, ptr %7, align 4, !tbaa !54
  %30 = sext i32 %29 to i64
  %31 = getelementptr inbounds i8, ptr %28, i64 %30
  store i8 %25, ptr %31, align 1, !tbaa !32
  %32 = load ptr, ptr %4, align 8, !tbaa !37
  %33 = call i32 @ReadByte(ptr noundef %32)
  %34 = trunc i32 %33 to i8
  %35 = load ptr, ptr %6, align 8, !tbaa !84
  %36 = getelementptr inbounds ptr, ptr %35, i64 2
  %37 = load ptr, ptr %36, align 8, !tbaa !79
  %38 = load i32, ptr %7, align 4, !tbaa !54
  %39 = sext i32 %38 to i64
  %40 = getelementptr inbounds i8, ptr %37, i64 %39
  store i8 %34, ptr %40, align 1, !tbaa !32
  %41 = load ptr, ptr %6, align 8, !tbaa !84
  %42 = getelementptr inbounds ptr, ptr %41, i64 0
  %43 = load ptr, ptr %42, align 8, !tbaa !79
  %44 = load i32, ptr %7, align 4, !tbaa !54
  %45 = sext i32 %44 to i64
  %46 = getelementptr inbounds i8, ptr %43, i64 %45
  %47 = load i8, ptr %46, align 1, !tbaa !32
  %48 = zext i8 %47 to i32
  %49 = load ptr, ptr %6, align 8, !tbaa !84
  %50 = getelementptr inbounds ptr, ptr %49, i64 1
  %51 = load ptr, ptr %50, align 8, !tbaa !79
  %52 = load i32, ptr %7, align 4, !tbaa !54
  %53 = sext i32 %52 to i64
  %54 = getelementptr inbounds i8, ptr %51, i64 %53
  %55 = load i8, ptr %54, align 1, !tbaa !32
  %56 = zext i8 %55 to i32
  %57 = icmp ne i32 %48, %56
  br i1 %57, label %76, label %58

58:                                               ; preds = %13
  %59 = load ptr, ptr %6, align 8, !tbaa !84
  %60 = getelementptr inbounds ptr, ptr %59, i64 1
  %61 = load ptr, ptr %60, align 8, !tbaa !79
  %62 = load i32, ptr %7, align 4, !tbaa !54
  %63 = sext i32 %62 to i64
  %64 = getelementptr inbounds i8, ptr %61, i64 %63
  %65 = load i8, ptr %64, align 1, !tbaa !32
  %66 = zext i8 %65 to i32
  %67 = load ptr, ptr %6, align 8, !tbaa !84
  %68 = getelementptr inbounds ptr, ptr %67, i64 2
  %69 = load ptr, ptr %68, align 8, !tbaa !79
  %70 = load i32, ptr %7, align 4, !tbaa !54
  %71 = sext i32 %70 to i64
  %72 = getelementptr inbounds i8, ptr %69, i64 %71
  %73 = load i8, ptr %72, align 1, !tbaa !32
  %74 = zext i8 %73 to i32
  %75 = icmp ne i32 %66, %74
  br i1 %75, label %76, label %77

76:                                               ; preds = %58, %13
  store i32 0, ptr %8, align 4, !tbaa !54
  br label %77

77:                                               ; preds = %76, %58
  br label %78

78:                                               ; preds = %77
  %79 = load i32, ptr %7, align 4, !tbaa !54
  %80 = add nsw i32 %79, 1
  store i32 %80, ptr %7, align 4, !tbaa !54
  br label %9, !llvm.loop !85

81:                                               ; preds = %9
  %82 = load ptr, ptr %4, align 8, !tbaa !37
  %83 = getelementptr inbounds nuw %struct.gif_source_struct, ptr %82, i32 0, i32 1
  %84 = load ptr, ptr %83, align 8, !tbaa !38
  %85 = getelementptr inbounds nuw %struct.jpeg_compress_struct, ptr %84, i32 0, i32 10
  %86 = load i32, ptr %85, align 4, !tbaa !74
  %87 = icmp eq i32 %86, 2
  br i1 %87, label %88, label %100

88:                                               ; preds = %81
  %89 = load i32, ptr %8, align 4, !tbaa !54
  %90 = icmp ne i32 %89, 0
  br i1 %90, label %91, label %100

91:                                               ; preds = %88
  %92 = load ptr, ptr %4, align 8, !tbaa !37
  %93 = getelementptr inbounds nuw %struct.gif_source_struct, ptr %92, i32 0, i32 1
  %94 = load ptr, ptr %93, align 8, !tbaa !38
  %95 = getelementptr inbounds nuw %struct.jpeg_compress_struct, ptr %94, i32 0, i32 10
  store i32 1, ptr %95, align 4, !tbaa !74
  %96 = load ptr, ptr %4, align 8, !tbaa !37
  %97 = getelementptr inbounds nuw %struct.gif_source_struct, ptr %96, i32 0, i32 1
  %98 = load ptr, ptr %97, align 8, !tbaa !38
  %99 = getelementptr inbounds nuw %struct.jpeg_compress_struct, ptr %98, i32 0, i32 9
  store i32 1, ptr %99, align 8, !tbaa !75
  br label %100

100:                                              ; preds = %91, %88, %81
  call void @llvm.lifetime.end.p0(i64 4, ptr %8) #3
  call void @llvm.lifetime.end.p0(i64 4, ptr %7) #3
  ret void
}