; Function Attrs: nounwind uwtable
define internal fastcc void @ReadColorMap(ptr noundef readonly captures(none) %0, i32 noundef range(i32 2, 257) %1, ptr noundef readonly captures(none) %2) unnamed_addr #0 {
  %4 = getelementptr inbounds nuw i8, ptr %0, i64 24
  %5 = getelementptr inbounds nuw i8, ptr %0, i64 64
  %6 = getelementptr inbounds nuw i8, ptr %2, i64 8
  %7 = getelementptr inbounds nuw i8, ptr %2, i64 16
  %wide.trip.count = zext nneg i32 %1 to i64
  br label %8

8:                                                ; preds = %3, %53
  %indvars.iv = phi i64 [ 0, %3 ], [ %indvars.iv.next, %53 ]
  %.030 = phi i32 [ 1, %3 ], [ %.1, %53 ]
  %9 = load ptr, ptr %4, align 8, !tbaa !47
  %10 = tail call i32 @getc(ptr noundef %9)
  %11 = icmp eq i32 %10, -1
  br i1 %11, label %12, label %ReadByte.exit

12:                                               ; preds = %8
  %13 = load ptr, ptr %5, align 8, !tbaa !35
  %14 = load ptr, ptr %13, align 8, !tbaa !25
  %15 = getelementptr inbounds nuw i8, ptr %14, i64 40
  store i32 43, ptr %15, align 8, !tbaa !26
  %16 = load ptr, ptr %14, align 8, !tbaa !31
  tail call void %16(ptr noundef nonnull %13) #4
  br label %ReadByte.exit

ReadByte.exit:                                    ; preds = %8, %12
  %17 = trunc i32 %10 to i8
  %18 = load ptr, ptr %2, align 8, !tbaa !83
  %19 = getelementptr inbounds nuw i8, ptr %18, i64 %indvars.iv
  store i8 %17, ptr %19, align 1, !tbaa !30
  %20 = load ptr, ptr %4, align 8, !tbaa !47
  %21 = tail call i32 @getc(ptr noundef %20)
  %22 = icmp eq i32 %21, -1
  br i1 %22, label %23, label %ReadByte.exit27

23:                                               ; preds = %ReadByte.exit
  %24 = load ptr, ptr %5, align 8, !tbaa !35
  %25 = load ptr, ptr %24, align 8, !tbaa !25
  %26 = getelementptr inbounds nuw i8, ptr %25, i64 40
  store i32 43, ptr %26, align 8, !tbaa !26
  %27 = load ptr, ptr %25, align 8, !tbaa !31
  tail call void %27(ptr noundef nonnull %24) #4
  br label %ReadByte.exit27

ReadByte.exit27:                                  ; preds = %ReadByte.exit, %23
  %28 = trunc i32 %21 to i8
  %29 = load ptr, ptr %6, align 8, !tbaa !83
  %30 = getelementptr inbounds nuw i8, ptr %29, i64 %indvars.iv
  store i8 %28, ptr %30, align 1, !tbaa !30
  %31 = load ptr, ptr %4, align 8, !tbaa !47
  %32 = tail call i32 @getc(ptr noundef %31)
  %33 = icmp eq i32 %32, -1
  br i1 %33, label %34, label %ReadByte.exit28

34:                                               ; preds = %ReadByte.exit27
  %35 = load ptr, ptr %5, align 8, !tbaa !35
  %36 = load ptr, ptr %35, align 8, !tbaa !25
  %37 = getelementptr inbounds nuw i8, ptr %36, i64 40
  store i32 43, ptr %37, align 8, !tbaa !26
  %38 = load ptr, ptr %36, align 8, !tbaa !31
  tail call void %38(ptr noundef nonnull %35) #4
  br label %ReadByte.exit28

ReadByte.exit28:                                  ; preds = %ReadByte.exit27, %34
  %39 = trunc i32 %32 to i8
  %40 = load ptr, ptr %7, align 8, !tbaa !83
  %41 = getelementptr inbounds nuw i8, ptr %40, i64 %indvars.iv
  store i8 %39, ptr %41, align 1, !tbaa !30
  %42 = load ptr, ptr %2, align 8, !tbaa !83
  %43 = getelementptr inbounds nuw i8, ptr %42, i64 %indvars.iv
  %44 = load i8, ptr %43, align 1, !tbaa !30
  %45 = load ptr, ptr %6, align 8, !tbaa !83
  %46 = getelementptr inbounds nuw i8, ptr %45, i64 %indvars.iv
  %47 = load i8, ptr %46, align 1, !tbaa !30
  %.not = icmp eq i8 %44, %47
  br i1 %.not, label %48, label %52

48:                                               ; preds = %ReadByte.exit28
  %49 = load ptr, ptr %7, align 8, !tbaa !83
  %50 = getelementptr inbounds nuw i8, ptr %49, i64 %indvars.iv
  %51 = load i8, ptr %50, align 1, !tbaa !30
  %.not26 = icmp eq i8 %44, %51
  br i1 %.not26, label %53, label %52

52:                                               ; preds = %48, %ReadByte.exit28
  br label %53

53:                                               ; preds = %48, %52
  %.1 = phi i32 [ 0, %52 ], [ %.030, %48 ]
  %indvars.iv.next = add nuw nsw i64 %indvars.iv, 1
  %exitcond.not = icmp eq i64 %indvars.iv.next, %wide.trip.count
  br i1 %exitcond.not, label %54, label %8, !llvm.loop !87

54:                                               ; preds = %53
  %55 = load ptr, ptr %5, align 8, !tbaa !35
  %56 = getelementptr inbounds nuw i8, ptr %55, i64 60
  %57 = load i32, ptr %56, align 4, !tbaa !79
  %58 = icmp eq i32 %57, 2
  %59 = icmp ne i32 %.1, 0
  %or.cond = select i1 %58, i1 %59, i1 false
  br i1 %or.cond, label %60, label %62

60:                                               ; preds = %54
  store i32 1, ptr %56, align 4, !tbaa !79
  %61 = getelementptr inbounds nuw i8, ptr %55, i64 56
  store i32 1, ptr %61, align 8, !tbaa !80
  br label %62

62:                                               ; preds = %60, %54
  ret void
}